target datalayout = "e-m:e-p270:32:32-p271:32:32-p272:64:64-i64:64-i128:128-f80:128-n8:16:32:64-S128"
target triple = "x86_64-pc-linux-gnu"

%"class.pxrInternal_v0_24__pxrReserved__::TfStaticData" = type { %"struct.std::atomic" }
%"struct.std::atomic" = type { %"struct.std::__atomic_base" }
%"struct.std::__atomic_base" = type { ptr }
%"struct.pxrInternal_v0_24__pxrReserved__::(anonymous namespace)::_tokens_PrivateStaticTokenType" = type { %"class.pxrInternal_v0_24__pxrReserved__::TfToken", %"class.pxrInternal_v0_24__pxrReserved__::TfToken", %"class.pxrInternal_v0_24__pxrReserved__::TfToken", %"class.std::vector" }
%"class.pxrInternal_v0_24__pxrReserved__::TfToken" = type { %"class.pxrInternal_v0_24__pxrReserved__::TfPointerAndBits" }
%"class.pxrInternal_v0_24__pxrReserved__::TfPointerAndBits" = type { ptr }
%"class.std::vector" = type { %"struct.std::_Vector_base" }
%"struct.std::_Vector_base" = type { %"struct.std::_Vector_base<pxrInternal_v0_24__pxrReserved__::TfToken, std::allocator<pxrInternal_v0_24__pxrReserved__::TfToken>>::_Vector_impl" }
%"struct.std::_Vector_base<pxrInternal_v0_24__pxrReserved__::TfToken, std::allocator<pxrInternal_v0_24__pxrReserved__::TfToken>>::_Vector_impl" = type { %"struct.std::_Vector_base<pxrInternal_v0_24__pxrReserved__::TfToken, std::allocator<pxrInternal_v0_24__pxrReserved__::TfToken>>::_Vector_impl_data" }
%"struct.std::_Vector_base<pxrInternal_v0_24__pxrReserved__::TfToken, std::allocator<pxrInternal_v0_24__pxrReserved__::TfToken>>::_Vector_impl_data" = type { ptr, ptr, ptr }

@_ZN32pxrInternal_v0_24__pxrReserved__L7_tokensE = internal global %"class.pxrInternal_v0_24__pxrReserved__::TfStaticData" zeroinitializer, align 8

; Function Attrs: mustprogress uwtable
define linkonce_odr noundef zeroext i1 @_ZN32pxrInternal_v0_24__pxrReserved__eqERKNSt7__cxx1112basic_stringIcSt11char_traitsIcESaIcEEERKNS_7TfTokenE(ptr noundef nonnull align 8 dereferenceable(32) %0, ptr noundef nonnull align 8 dereferenceable(8) %1) #0 comdat {
  %3 = alloca ptr, align 8
  %4 = alloca ptr, align 8
  store ptr %0, ptr %3, align 8
  store ptr %1, ptr %4, align 8
  %5 = load ptr, ptr %4, align 8
  %6 = load ptr, ptr %3, align 8
  %7 = call noundef zeroext i1 @_ZNK32pxrInternal_v0_24__pxrReserved__7TfTokeneqERKNSt7__cxx1112basic_stringIcSt11char_traitsIcESaIcEEE(ptr noundef nonnull align 8 dereferenceable(8) %5, ptr noundef nonnull align 8 dereferenceable(32) %6)
  ret i1 %7
}

; Function Attrs: mustprogress uwtable
define noundef zeroext i1 @_ZN32pxrInternal_v0_24__pxrReserved__28UsdUtilsRegisteredVariantSet34GetSelectionExportPolicyFromStringERKNSt7__cxx1112basic_stringIcSt11char_traitsIcESaIcEEEPNS0_21SelectionExportPolicyE(ptr noundef nonnull align 8 dereferenceable(32) %0, ptr noundef %1) #0 align 2 {
  %3 = alloca i1, align 1
  %4 = alloca ptr, align 8
  %5 = alloca ptr, align 8
  %6 = alloca i32, align 4
  store ptr %0, ptr %4, align 8
  store ptr %1, ptr %5, align 8
  %7 = load ptr, ptr %4, align 8
  %8 = call noundef ptr @_ZNK32pxrInternal_v0_24__pxrReserved__12TfStaticDataINS_12_GLOBAL__N_130_tokens_PrivateStaticTokenTypeENS_27Tf_StaticDataDefaultFactoryIS2_EEEptEv(ptr noundef nonnull align 8 dereferenceable(8) @_ZN32pxrInternal_v0_24__pxrReserved__L7_tokensE)
  %9 = getelementptr inbounds nuw %"struct.pxrInternal_v0_24__pxrReserved__::(anonymous namespace)::_tokens_PrivateStaticTokenType", ptr %8, i32 0, i32 0
  %10 = call noundef zeroext i1 @_ZN32pxrInternal_v0_24__pxrReserved__eqERKNSt7__cxx1112basic_stringIcSt11char_traitsIcESaIcEEERKNS_7TfTokenE(ptr noundef nonnull align 8 dereferenceable(32) %7, ptr noundef nonnull align 8 dereferenceable(8) %9)
  br i1 %10, label %11, label %12

11:                                               ; preds = %2
  store i32 0, ptr %6, align 4
  br label %27

12:                                               ; preds = %2
  %13 = load ptr, ptr %4, align 8
  %14 = call noundef ptr @_ZNK32pxrInternal_v0_24__pxrReserved__12TfStaticDataINS_12_GLOBAL__N_130_tokens_PrivateStaticTokenTypeENS_27Tf_StaticDataDefaultFactoryIS2_EEEptEv(ptr noundef nonnull align 8 dereferenceable(8) @_ZN32pxrInternal_v0_24__pxrReserved__L7_tokensE)
  %15 = getelementptr inbounds nuw %"struct.pxrInternal_v0_24__pxrReserved__::(anonymous namespace)::_tokens_PrivateStaticTokenType", ptr %14, i32 0, i32 1
  %16 = call noundef zeroext i1 @_ZN32pxrInternal_v0_24__pxrReserved__eqERKNSt7__cxx1112basic_stringIcSt11char_traitsIcESaIcEEERKNS_7TfTokenE(ptr noundef nonnull align 8 dereferenceable(32) %13, ptr noundef nonnull align 8 dereferenceable(8) %15)
  br i1 %16, label %17, label %18

17:                                               ; preds = %12
  store i32 1, ptr %6, align 4
  br label %26

18:                                               ; preds = %12
  %19 = load ptr, ptr %4, align 8
  %20 = call noundef ptr @_ZNK32pxrInternal_v0_24__pxrReserved__12TfStaticDataINS_12_GLOBAL__N_130_tokens_PrivateStaticTokenTypeENS_27Tf_StaticDataDefaultFactoryIS2_EEEptEv(ptr noundef nonnull align 8 dereferenceable(8) @_ZN32pxrInternal_v0_24__pxrReserved__L7_tokensE)
  %21 = getelementptr inbounds nuw %"struct.pxrInternal_v0_24__pxrReserved__::(anonymous namespace)::_tokens_PrivateStaticTokenType", ptr %20, i32 0, i32 2
  %22 = call noundef zeroext i1 @_ZN32pxrInternal_v0_24__pxrReserved__eqERKNSt7__cxx1112basic_stringIcSt11char_traitsIcESaIcEEERKNS_7TfTokenE(ptr noundef nonnull align 8 dereferenceable(32) %19, ptr noundef nonnull align 8 dereferenceable(8) %21)
  br i1 %22, label %23, label %24

23:                                               ; preds = %18
  store i32 2, ptr %6, align 4
  br label %25

24:                                               ; preds = %18
  store i1 false, ptr %3, align 1
  br label %34

25:                                               ; preds = %23
  br label %26

26:                                               ; preds = %25, %17
  br label %27

27:                                               ; preds = %26, %11
  %28 = load ptr, ptr %5, align 8
  %29 = icmp ne ptr %28, null
  br i1 %29, label %30, label %33

30:                                               ; preds = %27
  %31 = load i32, ptr %6, align 4
  %32 = load ptr, ptr %5, align 8
  store i32 %31, ptr %32, align 4
  br label %33

33:                                               ; preds = %30, %27
  store i1 true, ptr %3, align 1
  br label %34

34:                                               ; preds = %33, %24
  %35 = load i1, ptr %3, align 1
  ret i1 %35
}