; Function Attrs: mustprogress uwtable
define noundef zeroext i1 @_ZN32pxrInternal_v0_24__pxrReserved__28UsdUtilsRegisteredVariantSet34GetSelectionExportPolicyFromStringERKNSt7__cxx1112basic_stringIcSt11char_traitsIcESaIcEEEPNS0_21SelectionExportPolicyE(ptr noundef nonnull align 8 dereferenceable(32) %0, ptr noundef writeonly %1) local_unnamed_addr #0 align 2 {
  %3 = tail call fastcc noundef ptr @_ZNK32pxrInternal_v0_24__pxrReserved__12TfStaticDataINS_12_GLOBAL__N_130_tokens_PrivateStaticTokenTypeENS_27Tf_StaticDataDefaultFactoryIS2_EEEptEv()
  %4 = tail call noundef zeroext i1 @_ZNK32pxrInternal_v0_24__pxrReserved__7TfTokeneqERKNSt7__cxx1112basic_stringIcSt11char_traitsIcESaIcEEE(ptr noundef nonnull align 8 dereferenceable(8) %3, ptr noundef nonnull align 8 dereferenceable(32) %0)
  br i1 %4, label %13, label %5

5:                                                ; preds = %2
  %6 = tail call fastcc noundef ptr @_ZNK32pxrInternal_v0_24__pxrReserved__12TfStaticDataINS_12_GLOBAL__N_130_tokens_PrivateStaticTokenTypeENS_27Tf_StaticDataDefaultFactoryIS2_EEEptEv()
  %7 = getelementptr inbounds nuw i8, ptr %6, i64 8
  %8 = tail call noundef zeroext i1 @_ZNK32pxrInternal_v0_24__pxrReserved__7TfTokeneqERKNSt7__cxx1112basic_stringIcSt11char_traitsIcESaIcEEE(ptr noundef nonnull align 8 dereferenceable(8) %7, ptr noundef nonnull align 8 dereferenceable(32) %0)
  br i1 %8, label %13, label %9

9:                                                ; preds = %5
  %10 = tail call fastcc noundef ptr @_ZNK32pxrInternal_v0_24__pxrReserved__12TfStaticDataINS_12_GLOBAL__N_130_tokens_PrivateStaticTokenTypeENS_27Tf_StaticDataDefaultFactoryIS2_EEEptEv()
  %11 = getelementptr inbounds nuw i8, ptr %10, i64 16
  %12 = tail call noundef zeroext i1 @_ZNK32pxrInternal_v0_24__pxrReserved__7TfTokeneqERKNSt7__cxx1112basic_stringIcSt11char_traitsIcESaIcEEE(ptr noundef nonnull align 8 dereferenceable(8) %11, ptr noundef nonnull align 8 dereferenceable(32) %0)
  br i1 %12, label %13, label %15

13:                                               ; preds = %9, %5, %2
  %.0 = phi i32 [ 0, %2 ], [ 1, %5 ], [ 2, %9 ]
  %.not = icmp eq ptr %1, null
  br i1 %.not, label %15, label %14

14:                                               ; preds = %13
  store i32 %.0, ptr %1, align 4
  br label %15

15:                                               ; preds = %13, %14, %9
  %.06 = phi i1 [ false, %9 ], [ true, %14 ], [ true, %13 ]
  ret i1 %.06
}